target datalayout = "e-m:e-p270:32:32-p271:32:32-p272:64:64-i64:64-i128:128-f80:128-n8:16:32:64-S128"
target triple = "x86_64-pc-linux-gnu"

%struct.cmdinfo = type { ptr, ptr, ptr, i32, i32, i32, i32, ptr, ptr, ptr, i64 }

@ncmds = internal global i32 0, align 4
@cmdtab = internal global ptr null, align 8
@.str.14 = private unnamed_addr constant [22 x i8] c"command %s not found\0A\00", align 1
@.str.15 = private unnamed_addr constant [44 x i8] c"\0AUse 'help commandname' for extended help.\0A\00", align 1
@.str.16 = private unnamed_addr constant [4 x i8] c"%s \00", align 1
@.str.17 = private unnamed_addr constant [7 x i8] c"-- %s\0A\00", align 1

; Function Attrs: nounwind sspstrong uwtable
define internal void @help_oneline(ptr noundef %0, ptr noundef %1) #0 {
  %3 = alloca ptr, align 8
  %4 = alloca ptr, align 8
  store ptr %0, ptr %3, align 8
  store ptr %1, ptr %4, align 8
  %5 = load ptr, ptr %3, align 8
  %6 = call i32 (i32, ptr, ...) @__printf_chk(i32 noundef 1, ptr noundef @.str.16, ptr noundef %5)
  %7 = load ptr, ptr %4, align 8
  %8 = getelementptr inbounds nuw %struct.cmdinfo, ptr %7, i32 0, i32 7
  %9 = load ptr, ptr %8, align 8
  %10 = icmp ne ptr %9, null
  br i1 %10, label %11, label %16

11:                                               ; preds = %2
  %12 = load ptr, ptr %4, align 8
  %13 = getelementptr inbounds nuw %struct.cmdinfo, ptr %12, i32 0, i32 7
  %14 = load ptr, ptr %13, align 8
  %15 = call i32 (i32, ptr, ...) @__printf_chk(i32 noundef 1, ptr noundef @.str.16, ptr noundef %14)
  br label %16

16:                                               ; preds = %11, %2
  %17 = load ptr, ptr %4, align 8
  %18 = getelementptr inbounds nuw %struct.cmdinfo, ptr %17, i32 0, i32 8
  %19 = load ptr, ptr %18, align 8
  %20 = call i32 (i32, ptr, ...) @__printf_chk(i32 noundef 1, ptr noundef @.str.17, ptr noundef %19)
  ret void
}

; Function Attrs: nounwind sspstrong uwtable
define internal void @help_onecmd(ptr noundef %0, ptr noundef %1) #0 {
  %3 = alloca ptr, align 8
  %4 = alloca ptr, align 8
  store ptr %0, ptr %3, align 8
  store ptr %1, ptr %4, align 8
  %5 = load ptr, ptr %3, align 8
  %6 = load ptr, ptr %4, align 8
  call void @help_oneline(ptr noundef %5, ptr noundef %6)
  %7 = load ptr, ptr %4, align 8
  %8 = getelementptr inbounds nuw %struct.cmdinfo, ptr %7, i32 0, i32 9
  %9 = load ptr, ptr %8, align 8
  %10 = icmp ne ptr %9, null
  br i1 %10, label %11, label %15

11:                                               ; preds = %2
  %12 = load ptr, ptr %4, align 8
  %13 = getelementptr inbounds nuw %struct.cmdinfo, ptr %12, i32 0, i32 9
  %14 = load ptr, ptr %13, align 8
  call void %14()
  br label %15

15:                                               ; preds = %11, %2
  ret void
}

; Function Attrs: nounwind sspstrong uwtable
define internal ptr @find_command(ptr noundef %0) #0 {
  %2 = alloca ptr, align 8
  %3 = alloca ptr, align 8
  %4 = alloca ptr, align 8
  %5 = alloca i32, align 4
  store ptr %0, ptr %3, align 8
  call void @llvm.lifetime.start.p0(i64 8, ptr %4) #18
  store ptr null, ptr %4, align 8, !annotation !4
  %6 = load ptr, ptr @cmdtab, align 8
  store ptr %6, ptr %4, align 8
  br label %7

7:                                                ; preds = %36, %1
  %8 = load ptr, ptr %4, align 8
  %9 = load ptr, ptr @cmdtab, align 8
  %10 = load i32, ptr @ncmds, align 4
  %11 = sext i32 %10 to i64
  %12 = getelementptr inbounds %struct.cmdinfo, ptr %9, i64 %11
  %13 = icmp ult ptr %8, %12
  br i1 %13, label %14, label %39

14:                                               ; preds = %7
  %15 = load ptr, ptr %4, align 8
  %16 = getelementptr inbounds nuw %struct.cmdinfo, ptr %15, i32 0, i32 0
  %17 = load ptr, ptr %16, align 8
  %18 = load ptr, ptr %3, align 8
  %19 = call i32 @strcmp(ptr noundef %17, ptr noundef %18) #19
  %20 = icmp eq i32 %19, 0
  br i1 %20, label %33, label %21

21:                                               ; preds = %14
  %22 = load ptr, ptr %4, align 8
  %23 = getelementptr inbounds nuw %struct.cmdinfo, ptr %22, i32 0, i32 1
  %24 = load ptr, ptr %23, align 8
  %25 = icmp ne ptr %24, null
  br i1 %25, label %26, label %35

26:                                               ; preds = %21
  %27 = load ptr, ptr %4, align 8
  %28 = getelementptr inbounds nuw %struct.cmdinfo, ptr %27, i32 0, i32 1
  %29 = load ptr, ptr %28, align 8
  %30 = load ptr, ptr %3, align 8
  %31 = call i32 @strcmp(ptr noundef %29, ptr noundef %30) #19
  %32 = icmp eq i32 %31, 0
  br i1 %32, label %33, label %35

33:                                               ; preds = %26, %14
  %34 = load ptr, ptr %4, align 8
  store ptr %34, ptr %2, align 8
  store i32 1, ptr %5, align 4
  br label %40

35:                                               ; preds = %26, %21
  br label %36

36:                                               ; preds = %35
  %37 = load ptr, ptr %4, align 8
  %38 = getelementptr inbounds nuw %struct.cmdinfo, ptr %37, i32 1
  store ptr %38, ptr %4, align 8
  br label %7, !llvm.loop !8

39:                                               ; preds = %7
  store ptr null, ptr %2, align 8
  store i32 1, ptr %5, align 4
  br label %40

40:                                               ; preds = %39, %33
  call void @llvm.lifetime.end.p0(i64 8, ptr %4) #18
  %41 = load ptr, ptr %2, align 8
  ret ptr %41
}

; Function Attrs: nounwind sspstrong uwtable
define internal void @help_all() #0 {
  %1 = alloca ptr, align 8
  call void @llvm.lifetime.start.p0(i64 8, ptr %1) #18
  store ptr null, ptr %1, align 8, !annotation !4
  %2 = load ptr, ptr @cmdtab, align 8
  store ptr %2, ptr %1, align 8
  br label %3

3:                                                ; preds = %15, %0
  %4 = load ptr, ptr %1, align 8
  %5 = load ptr, ptr @cmdtab, align 8
  %6 = load i32, ptr @ncmds, align 4
  %7 = sext i32 %6 to i64
  %8 = getelementptr inbounds %struct.cmdinfo, ptr %5, i64 %7
  %9 = icmp ult ptr %4, %8
  br i1 %9, label %10, label %18

10:                                               ; preds = %3
  %11 = load ptr, ptr %1, align 8
  %12 = getelementptr inbounds nuw %struct.cmdinfo, ptr %11, i32 0, i32 0
  %13 = load ptr, ptr %12, align 8
  %14 = load ptr, ptr %1, align 8
  call void @help_oneline(ptr noundef %13, ptr noundef %14)
  br label %15

15:                                               ; preds = %10
  %16 = load ptr, ptr %1, align 8
  %17 = getelementptr inbounds nuw %struct.cmdinfo, ptr %16, i32 1
  store ptr %17, ptr %1, align 8
  br label %3, !llvm.loop !9

18:                                               ; preds = %3
  %19 = call i32 (i32, ptr, ...) @__printf_chk(i32 noundef 1, ptr noundef @.str.15)
  call void @llvm.lifetime.end.p0(i64 8, ptr %1) #18
  ret void
}

; Function Attrs: nounwind sspstrong uwtable
define internal i32 @help_f(ptr noundef %0, i32 noundef %1, ptr noundef %2) #0 {
  %4 = alloca i32, align 4
  %5 = alloca ptr, align 8
  %6 = alloca i32, align 4
  %7 = alloca ptr, align 8
  %8 = alloca ptr, align 8
  %9 = alloca i32, align 4
  store ptr %0, ptr %5, align 8
  store i32 %1, ptr %6, align 4
  store ptr %2, ptr %7, align 8
  call void @llvm.lifetime.start.p0(i64 8, ptr %8) #18
  store ptr null, ptr %8, align 8, !annotation !4
  %10 = load i32, ptr %6, align 4
  %11 = icmp slt i32 %10, 2
  br i1 %11, label %12, label %13

12:                                               ; preds = %3
  call void @help_all()
  store i32 0, ptr %4, align 4
  store i32 1, ptr %9, align 4
  br label %30

13:                                               ; preds = %3
  %14 = load ptr, ptr %7, align 8
  %15 = getelementptr inbounds ptr, ptr %14, i64 1
  %16 = load ptr, ptr %15, align 8
  %17 = call ptr @find_command(ptr noundef %16)
  store ptr %17, ptr %8, align 8
  %18 = load ptr, ptr %8, align 8
  %19 = icmp eq ptr %18, null
  br i1 %19, label %20, label %25

20:                                               ; preds = %13
  %21 = load ptr, ptr %7, align 8
  %22 = getelementptr inbounds ptr, ptr %21, i64 1
  %23 = load ptr, ptr %22, align 8
  %24 = call i32 (i32, ptr, ...) @__printf_chk(i32 noundef 1, ptr noundef @.str.14, ptr noundef %23)
  store i32 -22, ptr %4, align 4
  store i32 1, ptr %9, align 4
  br label %30

25:                                               ; preds = %13
  %26 = load ptr, ptr %7, align 8
  %27 = getelementptr inbounds ptr, ptr %26, i64 1
  %28 = load ptr, ptr %27, align 8
  %29 = load ptr, ptr %8, align 8
  call void @help_onecmd(ptr noundef %28, ptr noundef %29)
  store i32 0, ptr %4, align 4
  store i32 1, ptr %9, align 4
  br label %30

30:                                               ; preds = %25, %20, %12
  call void @llvm.lifetime.end.p0(i64 8, ptr %8) #18
  %31 = load i32, ptr %4, align 4
  ret i32 %31
}