; Function Attrs: nounwind sspstrong uwtable
define internal range(i32 -22, 1) i32 @help_f(ptr readnone captures(none) %0, i32 noundef %1, ptr noundef readonly captures(none) %2) #0 {
  %4 = icmp slt i32 %1, 2
  br i1 %4, label %5, label %25

5:                                                ; preds = %3
  %6 = load i32, ptr @ncmds, align 4
  %7 = icmp sgt i32 %6, 0
  br i1 %7, label %.lr.ph.preheader.i, label %help_all.exit

.lr.ph.preheader.i:                               ; preds = %5
  %8 = load ptr, ptr @cmdtab, align 8
  br label %.lr.ph.i

.lr.ph.i:                                         ; preds = %help_oneline.exit.i, %.lr.ph.preheader.i
  %.04.i = phi ptr [ %18, %help_oneline.exit.i ], [ %8, %.lr.ph.preheader.i ]
  %9 = load ptr, ptr %.04.i, align 8
  %10 = tail call i32 (i32, ptr, ...) @__printf_chk(i32 noundef 1, ptr noundef nonnull @.str.16, ptr noundef %9) #26
  %11 = getelementptr inbounds nuw i8, ptr %.04.i, i64 40
  %12 = load ptr, ptr %11, align 8
  %.not.i.i = icmp eq ptr %12, null
  br i1 %.not.i.i, label %help_oneline.exit.i, label %13

13:                                               ; preds = %.lr.ph.i
  %14 = tail call i32 (i32, ptr, ...) @__printf_chk(i32 noundef 1, ptr noundef nonnull @.str.16, ptr noundef nonnull %12) #26
  br label %help_oneline.exit.i

help_oneline.exit.i:                              ; preds = %13, %.lr.ph.i
  %15 = getelementptr inbounds nuw i8, ptr %.04.i, i64 48
  %16 = load ptr, ptr %15, align 8
  %17 = tail call i32 (i32, ptr, ...) @__printf_chk(i32 noundef 1, ptr noundef nonnull @.str.17, ptr noundef %16) #26
  %18 = getelementptr inbounds nuw i8, ptr %.04.i, i64 72
  %19 = load ptr, ptr @cmdtab, align 8
  %20 = load i32, ptr @ncmds, align 4
  %21 = sext i32 %20 to i64
  %22 = getelementptr inbounds %struct.cmdinfo, ptr %19, i64 %21
  %23 = icmp ult ptr %18, %22
  br i1 %23, label %.lr.ph.i, label %help_all.exit, !llvm.loop !9

help_all.exit:                                    ; preds = %help_oneline.exit.i, %5
  %24 = tail call i32 (i32, ptr, ...) @__printf_chk(i32 noundef 1, ptr noundef nonnull @.str.15) #26
  br label %help_onecmd.exit

25:                                               ; preds = %3
  %26 = getelementptr inbounds nuw i8, ptr %2, i64 8
  %27 = load ptr, ptr %26, align 8
  %28 = load ptr, ptr @cmdtab, align 8
  %29 = load i32, ptr @ncmds, align 4
  %30 = sext i32 %29 to i64
  %31 = getelementptr inbounds %struct.cmdinfo, ptr %28, i64 %30
  %32 = icmp sgt i32 %29, 0
  br i1 %32, label %.lr.ph.i7, label %.loopexit

.lr.ph.i7:                                        ; preds = %25, %42
  %.011.i = phi ptr [ %43, %42 ], [ %28, %25 ]
  %33 = load ptr, ptr %.011.i, align 8
  %34 = tail call i32 @strcmp(ptr noundef nonnull dereferenceable(1) %33, ptr noundef nonnull readonly dereferenceable(1) %27) #27
  %35 = icmp eq i32 %34, 0
  br i1 %35, label %find_command.exit, label %36

36:                                               ; preds = %.lr.ph.i7
  %37 = getelementptr inbounds nuw i8, ptr %.011.i, i64 8
  %38 = load ptr, ptr %37, align 8
  %.not.i = icmp eq ptr %38, null
  br i1 %.not.i, label %42, label %39

39:                                               ; preds = %36
  %40 = tail call i32 @strcmp(ptr noundef nonnull dereferenceable(1) %38, ptr noundef nonnull readonly dereferenceable(1) %27) #27
  %41 = icmp eq i32 %40, 0
  br i1 %41, label %find_command.exit, label %42

42:                                               ; preds = %39, %36
  %43 = getelementptr inbounds nuw i8, ptr %.011.i, i64 72
  %44 = icmp ult ptr %43, %31
  br i1 %44, label %.lr.ph.i7, label %.loopexit, !llvm.loop !7

.loopexit:                                        ; preds = %42, %25
  %45 = tail call i32 (i32, ptr, ...) @__printf_chk(i32 noundef 1, ptr noundef nonnull @.str.14, ptr noundef %27) #26
  br label %help_onecmd.exit

find_command.exit:                                ; preds = %39, %.lr.ph.i7
  %46 = tail call i32 (i32, ptr, ...) @__printf_chk(i32 noundef 1, ptr noundef nonnull @.str.16, ptr noundef nonnull %27) #26
  %47 = getelementptr inbounds nuw i8, ptr %.011.i, i64 40
  %48 = load ptr, ptr %47, align 8
  %.not.i.i8 = icmp eq ptr %48, null
  br i1 %.not.i.i8, label %help_oneline.exit.i9, label %49

49:                                               ; preds = %find_command.exit
  %50 = tail call i32 (i32, ptr, ...) @__printf_chk(i32 noundef 1, ptr noundef nonnull @.str.16, ptr noundef nonnull %48) #26
  br label %help_oneline.exit.i9

help_oneline.exit.i9:                             ; preds = %49, %find_command.exit
  %51 = getelementptr inbounds nuw i8, ptr %.011.i, i64 48
  %52 = load ptr, ptr %51, align 8
  %53 = tail call i32 (i32, ptr, ...) @__printf_chk(i32 noundef 1, ptr noundef nonnull @.str.17, ptr noundef %52) #26
  %54 = getelementptr inbounds nuw i8, ptr %.011.i, i64 56
  %55 = load ptr, ptr %54, align 8
  %.not.i10 = icmp eq ptr %55, null
  br i1 %.not.i10, label %help_onecmd.exit, label %56

56:                                               ; preds = %help_oneline.exit.i9
  tail call void %55() #26
  br label %help_onecmd.exit

help_onecmd.exit:                                 ; preds = %56, %help_oneline.exit.i9, %.loopexit, %help_all.exit
  %.0 = phi i32 [ 0, %help_all.exit ], [ -22, %.loopexit ], [ 0, %help_oneline.exit.i9 ], [ 0, %56 ]
  ret i32 %.0
}